; Function Attrs: mustprogress uwtable
define noundef i64 @_ZN11duckdb_zstd23ZDICT_getDictHeaderSizeEPKvm(ptr noundef %0, i64 noundef %1) local_unnamed_addr #1 {
  %3 = icmp ult i64 %1, 9
  br i1 %3, label %13, label %4

4:                                                ; preds = %2
  %.val = load i32, ptr %0, align 1, !tbaa !3
  %.not = icmp eq i32 %.val, -332356553
  br i1 %.not, label %5, label %13

5:                                                ; preds = %4
  %6 = tail call noalias dereferenceable_or_null(5632) ptr @malloc(i64 noundef 5632) #15
  %7 = tail call noalias dereferenceable_or_null(8704) ptr @malloc(i64 noundef 8704) #15
  %8 = icmp ne ptr %6, null
  %9 = icmp ne ptr %7, null
  %or.cond = and i1 %8, %9
  br i1 %or.cond, label %10, label %12

10:                                               ; preds = %5
  tail call void @_ZN11duckdb_zstd31ZSTD_reset_compressedBlockStateEPNS_27ZSTD_compressedBlockState_tE(ptr noundef nonnull %6)
  %11 = tail call noundef i64 @_ZN11duckdb_zstd17ZSTD_loadCEntropyEPNS_27ZSTD_compressedBlockState_tEPvPKvm(ptr noundef nonnull %6, ptr noundef nonnull %7, ptr noundef nonnull %0, i64 noundef %1)
  br label %12

12:                                               ; preds = %5, %10
  %.013 = phi i64 [ %11, %10 ], [ -64, %5 ]
  tail call void @free(ptr noundef %6) #16
  tail call void @free(ptr noundef %7) #16
  br label %13

13:                                               ; preds = %2, %4, %12
  %.0 = phi i64 [ %.013, %12 ], [ -30, %4 ], [ -30, %2 ]
  ret i64 %.0
}